Certificate:
    Data:
        Version: 3 (0x2)
        Serial Number: 49 (0x31)
        Signature Algorithm: sha256WithRSAEncryption
        Issuer: C=US, O=Google, OU=Enterprise, CN=Single Root CA
        Validity
            Not Before: Nov 17 20:32:04 2024 GMT
            Not After : Nov 17 20:32:04 2034 GMT
        Subject: C=US, O=Google, OU=Enterprise, CN=*.googleapis.com
        Subject Public Key Info:
            Public Key Algorithm: rsaEncryption
                Public-Key: (2048 bit)
                Modulus:
                    00:b3:b2:4e:f1:18:0f:50:6d:6b:c2:c9:b7:7f:46:
                    6c:19:56:9d:29:77:38:19:38:20:da:31:d3:74:a4:
                    8e:b8:27:f6:13:24:10:7d:f0:2d:bd:13:44:7c:40:
                    06:d7:13:50:46:26:4c:e1:f8:0b:ad:9e:4b:df:d0:
                    6d:ad:f4:5f:50:c6:9a:2b:51:6d:fd:fc:7d:f8:f7:
                    8f:15:d7:91:f6:7c:b7:4a:61:5e:33:ac:14:1f:53:
                    a8:a1:a0:cd:2a:00:d6:0f:15:2e:64:9a:f7:7a:86:
                    89:47:16:33:29:0c:3c:79:16:11:00:43:62:01:76:
                    ac:ee:f2:e9:74:c5:d2:98:d1:d1:00:55:a0:20:ff:
                    3d:2d:db:d7:68:e4:c6:69:a7:60:19:bf:b5:8a:fe:
                    cc:77:23:98:e8:af:b2:8a:7b:d3:f9:84:3e:75:03:
                    a0:24:98:62:d1:3d:6c:87:4b:08:4a:28:26:d3:18:
                    f0:1f:48:2b:ae:78:31:6f:a2:57:f2:d6:bc:7a:79:
                    f0:d4:4d:f3:4f:da:1d:22:50:f3:48:93:0d:db:13:
                    98:3f:1a:ef:a4:dc:a1:2d:6a:ec:73:23:20:1b:49:
                    50:39:1f:09:2c:bf:3d:72:33:01:9f:04:51:bd:40:
                    0b:57:36:53:1c:8d:a3:63:d4:ea:74:50:bf:17:90:
                    8e:1f
                Exponent: 65537 (0x10001)
        X509v3 extensions:
            X509v3 Key Usage: critical
                Digital Signature
            X509v3 Basic Constraints: 
                CA:FALSE
            X509v3 Extended Key Usage: 
                TLS Web Server Authentication
            X509v3 Subject Key Identifier: 
                4A:C7:A5:1D:01:66:E9:81:8C:F1:C3:2F:54:75:DC:6E:4F:40:F1:59
            X509v3 Authority Key Identifier: 
                EC:F0:EA:53:53:3F:9F:23:DC:C1:0E:31:10:37:07:DE:DE:E7:6E:F3
            Authority Information Access: 
                CA Issuers - URI:http://pki.esodemoapp2.com/ca/root-ca.cer
            X509v3 CRL Distribution Points: 
                Full Name:
                  URI:http://pki.esodemoapp2.com/ca/root-ca.crl
            X509v3 Subject Alternative Name: 
                DNS:pubsub.googleapis.com, DNS:storage.googleapis.com
    Signature Algorithm: sha256WithRSAEncryption
    Signature Value:
        a8:b4:be:2d:94:e7:02:c4:1a:08:ee:05:e1:08:12:ad:18:8e:
        8a:03:a9:62:a7:06:b6:3c:41:fb:39:b8:bc:cf:7a:01:1f:50:
        fe:e8:cf:93:47:4c:d7:b0:f1:48:53:c1:30:bc:03:29:44:fc:
        dd:71:9c:33:c6:e4:97:cf:07:cc:4d:6d:af:18:9f:7f:0a:e2:
        5e:fd:3d:54:6b:5a:09:2e:38:00:b8:ec:f9:24:89:25:27:58:
        f6:ca:28:a1:6d:ac:22:c7:21:15:5d:28:29:85:c3:9f:10:1b:
        a3:e3:73:fd:38:6c:2b:f4:be:be:00:bd:fc:ec:f3:c0:b6:69:
        98:0b:4c:51:90:20:22:5d:a4:a0:2e:c2:98:9a:ca:24:29:cb:
        37:bd:b7:c9:0a:bb:c8:80:f6:e4:6e:fb:b4:56:cb:57:45:ee:
        2e:14:49:f4:16:f8:93:6c:d0:5a:5b:8a:01:c3:5a:33:1a:8b:
        d4:be:b1:31:03:8b:bf:f5:ed:9b:59:3a:49:c0:a5:fa:1f:e6:
        cc:c4:9f:30:d5:b0:49:97:d3:58:0e:f1:bf:57:15:6d:5f:72:
        7e:16:d7:a2:ec:c6:1d:ac:70:a1:e8:f3:54:d7:58:05:bf:a1:
        ab:58:6a:f7:ed:c4:6c:90:e6:c3:7e:fa:a1:19:8d:22:59:a2:
        f5:83:c2:f8
-----BEGIN CERTIFICATE-----
MIIESDCCAzCgAwIBAgIBMTANBgkqhkiG9w0BAQsFADBMMQswCQYDVQQGEwJVUzEP
MA0GA1UECgwGR29vZ2xlMRMwEQYDVQQLDApFbnRlcnByaXNlMRcwFQYDVQQDDA5T
aW5nbGUgUm9vdCBDQTAeFw0yNDExMTcyMDMyMDRaFw0zNDExMTcyMDMyMDRaME4x
CzAJBgNVBAYTAlVTMQ8wDQYDVQQKDAZHb29nbGUxEzARBgNVBAsMCkVudGVycHJp
c2UxGTAXBgNVBAMMECouZ29vZ2xlYXBpcy5jb20wggEiMA0GCSqGSIb3DQEBAQUA
A4IBDwAwggEKAoIBAQCzsk7xGA9QbWvCybd/RmwZVp0pdzgZOCDaMdN0pI64J/YT
JBB98C29E0R8QAbXE1BGJkzh+Autnkvf0G2t9F9QxporUW39/H34948V15H2fLdK
YV4zrBQfU6ihoM0qANYPFS5kmvd6holHFjMpDDx5FhEAQ2IBdqzu8ul0xdKY0dEA
VaAg/z0t29do5MZpp2AZv7WK/sx3I5jor7KKe9P5hD51A6AkmGLRPWyHSwhKKCbT
GPAfSCuueDFvolfy1rx6efDUTfNP2h0iUPNIkw3bE5g/Gu+k3KEtauxzIyAbSVA5
Hwksvz1yMwGfBFG9QAtXNlMcjaNj1Op0UL8XkI4fAgMBAAGjggExMIIBLTAOBgNV
HQ8BAf8EBAMCB4AwCQYDVR0TBAIwADATBgNVHSUEDDAKBggrBgEFBQcDATAdBgNV
HQ4EFgQUSselHQFm6YGM8cMvVHXcbk9A8VkwHwYDVR0jBBgwFoAU7PDqU1M/nyPc
wQ4xEDcH3t7nbvMwRQYIKwYBBQUHAQEEOTA3MDUGCCsGAQUFBzAChilodHRwOi8v
cGtpLmVzb2RlbW9hcHAyLmNvbS9jYS9yb290LWNhLmNlcjA6BgNVHR8EMzAxMC+g
LaArhilodHRwOi8vcGtpLmVzb2RlbW9hcHAyLmNvbS9jYS9yb290LWNhLmNybDA4
BgNVHREEMTAvghVwdWJzdWIuZ29vZ2xlYXBpcy5jb22CFnN0b3JhZ2UuZ29vZ2xl
YXBpcy5jb20wDQYJKoZIhvcNAQELBQADggEBAKi0vi2U5wLEGgjuBeEIEq0YjooD
qWKnBrY8Qfs5uLzPegEfUP7oz5NHTNew8UhTwTC8AylE/N1xnDPG5JfPB8xNba8Y
n38K4l79PVRrWgkuOAC47PkkiSUnWPbKKKFtrCLHIRVdKCmFw58QG6Pjc/04bCv0
vr4Avfzs88C2aZgLTFGQICJdpKAuwpiayiQpyze9t8kKu8iA9uRu+7RWy1dF7i4U
SfQW+JNs0FpbigHDWjMai9S+sTEDi7/17ZtZOknApfof5szEnzDVsEmX01gO8b9X
FW1fcn4W16Lsxh2scKHo81TXWAW/oatYavftxGyQ5sN++qEZjSJZovWDwvg=
-----END CERTIFICATE-----
