Certificate:
    Data:
        Version: 3 (0x2)
        Serial Number: 46 (0x2e)
        Signature Algorithm: sha256WithRSAEncryption
        Issuer: C=US, O=Google, OU=Enterprise, CN=Enterprise Subordinate CA
        Validity
            Not Before: Oct 20 14:28:01 2022 GMT
            Not After : Jan 27 14:28:01 2025 GMT
        Subject: C=US, O=Google, OU=Enterprise, CN=*.googleapis.com
        Subject Public Key Info:
            Public Key Algorithm: rsaEncryption
                Public-Key: (2048 bit)
                Modulus:
                    00:c6:b9:e6:d6:03:eb:63:bd:89:26:2c:cb:d2:1a:
                    00:a7:c2:8d:8a:57:b4:e1:17:0d:38:1f:a9:85:9d:
                    b1:cb:f0:75:c2:ec:07:12:42:0b:e3:8f:be:5b:f0:
                    34:f4:d4:ce:a4:07:f7:c4:eb:db:f3:a1:c0:9f:11:
                    9a:04:71:c3:20:2d:56:54:c7:6d:fa:62:c1:4b:b1:
                    4c:96:ef:d1:9e:1e:5f:e8:e4:26:a3:2d:16:76:b3:
                    0a:d4:6c:9d:3d:03:8c:4d:ec:a0:99:82:60:38:e0:
                    4b:92:21:de:1d:79:7c:59:94:bb:da:9f:da:03:0e:
                    4a:28:1f:9e:ed:d9:d3:7c:07:8d:6f:da:c2:1e:bc:
                    2b:fd:58:f9:c8:2e:a4:35:b4:4a:29:f8:81:b8:01:
                    29:fa:22:46:c5:4d:d1:49:56:42:b1:cf:f5:0e:a8:
                    47:3f:93:64:0d:41:ab:96:2d:78:3b:f0:e1:40:f0:
                    b3:32:6e:7a:79:54:67:27:7a:61:a6:c8:40:4b:1e:
                    84:74:dd:a4:12:d6:cc:86:7c:97:c7:86:60:c0:31:
                    c0:bf:1b:4c:05:99:ea:5e:e8:68:5f:38:14:85:d6:
                    e8:a7:0d:d6:7d:27:1c:78:93:41:15:f6:ce:4f:6c:
                    a9:e7:10:eb:25:c9:3b:71:53:02:26:02:86:8d:66:
                    44:19
                Exponent: 65537 (0x10001)
        X509v3 extensions:
            X509v3 Key Usage: critical
                Digital Signature
            X509v3 Basic Constraints: 
                CA:FALSE
            X509v3 Extended Key Usage: 
                TLS Web Server Authentication
            X509v3 Subject Key Identifier: 
                E4:D9:17:B6:A2:E7:26:3E:3D:46:2C:CF:05:CF:BD:C9:84:71:83:68
            X509v3 Authority Key Identifier: 
                B7:BA:B0:02:A1:E7:BE:34:C6:C1:05:5C:66:78:E5:BB:53:5D:A1:54
            Authority Information Access: 
                CA Issuers - URI:http://pki.esodemoapp2.com/ca/tls-ca.cer
            X509v3 CRL Distribution Points: 
                Full Name:
                  URI:http://pki.esodemoapp2.com/ca/tls-ca.crl
            X509v3 Subject Alternative Name: 
                DNS:pubsub.googleapis.com, DNS:storage.googleapis.com
    Signature Algorithm: sha256WithRSAEncryption
    Signature Value:
        0c:55:6d:07:c9:33:02:72:06:41:bb:92:15:19:c2:72:47:36:
        09:89:0b:13:05:82:70:9f:5d:de:6a:e9:d6:8b:4b:b3:b7:11:
        f2:97:d0:73:5c:54:1d:ee:d9:cd:af:8a:f3:fb:ac:12:3c:3a:
        4b:cf:e2:a5:67:83:8b:b5:29:8e:dc:26:0c:fb:12:b6:9b:e9:
        68:cf:20:c3:fd:0e:a8:07:17:b2:e9:fd:3a:9d:55:c6:3a:b4:
        e7:7b:55:68:96:c0:b5:9a:0d:67:26:14:55:37:a8:51:a0:14:
        76:37:60:a1:45:45:f3:94:bd:f2:5b:29:77:33:40:1e:76:48:
        9c:7c:42:4c:b1:3f:a9:ce:a3:fe:d6:09:76:9e:51:2a:67:a2:
        51:29:45:ee:c7:89:f1:3e:6e:77:4d:23:7f:98:c1:4b:a2:ed:
        64:6c:7b:f0:34:01:8e:1e:f2:c5:47:ed:fc:c6:08:b6:f0:de:
        ff:87:43:e9:dc:9e:76:43:ea:24:85:0b:5d:ad:b7:e3:8a:42:
        9b:09:ad:b2:f7:59:9f:e9:25:f9:60:b5:00:aa:2b:c7:3e:01:
        eb:29:e5:3a:5d:91:79:85:bb:45:c8:62:bb:a3:86:21:92:36:
        d1:25:3d:85:d8:9f:e2:aa:e6:76:7d:4b:b6:2e:b8:56:f2:8f:
        ef:aa:4a:c0
-----BEGIN CERTIFICATE-----
MIIEUTCCAzmgAwIBAgIBLjANBgkqhkiG9w0BAQsFADBXMQswCQYDVQQGEwJVUzEP
MA0GA1UECgwGR29vZ2xlMRMwEQYDVQQLDApFbnRlcnByaXNlMSIwIAYDVQQDDBlF
bnRlcnByaXNlIFN1Ym9yZGluYXRlIENBMB4XDTIyMTAyMDE0MjgwMVoXDTI1MDEy
NzE0MjgwMVowTjELMAkGA1UEBhMCVVMxDzANBgNVBAoMBkdvb2dsZTETMBEGA1UE
CwwKRW50ZXJwcmlzZTEZMBcGA1UEAwwQKi5nb29nbGVhcGlzLmNvbTCCASIwDQYJ
KoZIhvcNAQEBBQADggEPADCCAQoCggEBAMa55tYD62O9iSYsy9IaAKfCjYpXtOEX
DTgfqYWdscvwdcLsBxJCC+OPvlvwNPTUzqQH98Tr2/OhwJ8RmgRxwyAtVlTHbfpi
wUuxTJbv0Z4eX+jkJqMtFnazCtRsnT0DjE3soJmCYDjgS5Ih3h15fFmUu9qf2gMO
Sigfnu3Z03wHjW/awh68K/1Y+cgupDW0Sin4gbgBKfoiRsVN0UlWQrHP9Q6oRz+T
ZA1Bq5YteDvw4UDwszJuenlUZyd6YabIQEsehHTdpBLWzIZ8l8eGYMAxwL8bTAWZ
6l7oaF84FIXW6KcN1n0nHHiTQRX2zk9sqecQ6yXJO3FTAiYCho1mRBkCAwEAAaOC
AS8wggErMA4GA1UdDwEB/wQEAwIHgDAJBgNVHRMEAjAAMBMGA1UdJQQMMAoGCCsG
AQUFBwMBMB0GA1UdDgQWBBTk2Re2oucmPj1GLM8Fz73JhHGDaDAfBgNVHSMEGDAW
gBS3urACoee+NMbBBVxmeOW7U12hVDBEBggrBgEFBQcBAQQ4MDYwNAYIKwYBBQUH
MAKGKGh0dHA6Ly9wa2kuZXNvZGVtb2FwcDIuY29tL2NhL3Rscy1jYS5jZXIwOQYD
VR0fBDIwMDAuoCygKoYoaHR0cDovL3BraS5lc29kZW1vYXBwMi5jb20vY2EvdGxz
LWNhLmNybDA4BgNVHREEMTAvghVwdWJzdWIuZ29vZ2xlYXBpcy5jb22CFnN0b3Jh
Z2UuZ29vZ2xlYXBpcy5jb20wDQYJKoZIhvcNAQELBQADggEBAAxVbQfJMwJyBkG7
khUZwnJHNgmJCxMFgnCfXd5q6daLS7O3EfKX0HNcVB3u2c2vivP7rBI8OkvP4qVn
g4u1KY7cJgz7Erab6WjPIMP9DqgHF7Lp/TqdVcY6tOd7VWiWwLWaDWcmFFU3qFGg
FHY3YKFFRfOUvfJbKXczQB52SJx8QkyxP6nOo/7WCXaeUSpnolEpRe7HifE+bndN
I3+YwUui7WRse/A0AY4e8sVH7fzGCLbw3v+HQ+ncnnZD6iSFC12tt+OKQpsJrbL3
WZ/pJflgtQCqK8c+Aesp5TpdkXmFu0XIYrujhiGSNtElPYXYn+Kq5nZ9S7YuuFby
j++qSsA=
-----END CERTIFICATE-----
